target datalayout = "e-m:e-p270:32:32-p271:32:32-p272:64:64-i64:64-i128:128-f80:128-n8:16:32:64-S128"
target triple = "x86_64-pc-linux-gnu"

%class.ShenandoahSimpleBitMap = type { i64, i64, ptr }

; Function Attrs: mustprogress nounwind uwtable
define linkonce_odr hidden noundef i32 @_Z23count_trailing_zeros_64m(i64 noundef %0) #1 comdat {
  %2 = alloca i64, align 8
  store i64 %0, ptr %2, align 8
  %3 = load i64, ptr %2, align 8
  %4 = call i64 @llvm.cttz.i64(i64 %3, i1 true)
  %5 = trunc i64 %4 to i32
  ret i32 %5
}

; Function Attrs: mustprogress nounwind uwtable
define linkonce_odr hidden noundef i32 @_Z20count_trailing_zerosImTnNSt9enable_ifIXcvbsr3std11is_integralIT_EE5valueEiE4typeELi0ETnNS0_IXcvblestS1_Lm8EEiE4typeELi0EEjS1_(i64 noundef %0) #1 comdat {
  %2 = alloca i64, align 8
  store i64 %0, ptr %2, align 8
  %3 = load i64, ptr %2, align 8
  %4 = call noundef i32 @_Z23count_trailing_zeros_64m(i64 noundef %3)
  ret i32 %4
}

; Function Attrs: mustprogress nounwind uwtable
define hidden noundef zeroext i1 @_ZNK22ShenandoahSimpleBitMap27is_forward_consecutive_onesEll(ptr noundef nonnull align 8 dereferenceable(24) %0, i64 noundef %1, i64 noundef %2) #1 align 2 {
  %4 = alloca i1, align 1
  %5 = alloca ptr, align 8
  %6 = alloca i64, align 8
  %7 = alloca i64, align 8
  %8 = alloca i64, align 8
  %9 = alloca i64, align 8
  %10 = alloca i64, align 8
  %11 = alloca i64, align 8
  %12 = alloca i64, align 8
  %13 = alloca i64, align 8
  store ptr %0, ptr %5, align 8
  store i64 %1, ptr %6, align 8
  store i64 %2, ptr %7, align 8
  %14 = load ptr, ptr %5, align 8
  br label %15

15:                                               ; preds = %61, %3
  %16 = load i64, ptr %7, align 8
  %17 = icmp sgt i64 %16, 0
  br i1 %17, label %18, label %62

18:                                               ; preds = %15
  %19 = load i64, ptr %6, align 8
  %20 = ashr i64 %19, 6
  store i64 %20, ptr %8, align 8
  %21 = load i64, ptr %6, align 8
  %22 = and i64 %21, 63
  store i64 %22, ptr %9, align 8
  %23 = getelementptr inbounds %class.ShenandoahSimpleBitMap, ptr %14, i32 0, i32 2
  %24 = load ptr, ptr %23, align 8
  %25 = load i64, ptr %8, align 8
  %26 = getelementptr inbounds i64, ptr %24, i64 %25
  %27 = load i64, ptr %26, align 8
  store i64 %27, ptr %10, align 8
  %28 = load i64, ptr %9, align 8
  %29 = sub i64 64, %28
  store i64 %29, ptr %11, align 8
  %30 = load i64, ptr %9, align 8
  %31 = load i64, ptr %10, align 8
  %32 = lshr i64 %31, %30
  store i64 %32, ptr %10, align 8
  %33 = load i64, ptr %10, align 8
  %34 = xor i64 %33, -1
  store i64 %34, ptr %12, align 8
  %35 = load i64, ptr %12, align 8
  %36 = icmp ne i64 %35, 0
  br i1 %36, label %37, label %41

37:                                               ; preds = %18
  %38 = load i64, ptr %12, align 8
  %39 = call noundef i32 @_Z20count_trailing_zerosImTnNSt9enable_ifIXcvbsr3std11is_integralIT_EE5valueEiE4typeELi0ETnNS0_IXcvblestS1_Lm8EEiE4typeELi0EEjS1_(i64 noundef %38)
  %40 = zext i32 %39 to i64
  store i64 %40, ptr %13, align 8
  br label %43

41:                                               ; preds = %18
  %42 = load i64, ptr %11, align 8
  store i64 %42, ptr %13, align 8
  br label %43

43:                                               ; preds = %41, %37
  %44 = load i64, ptr %13, align 8
  %45 = load i64, ptr %7, align 8
  %46 = icmp uge i64 %44, %45
  br i1 %46, label %47, label %48

47:                                               ; preds = %43
  store i1 true, ptr %4, align 1
  br label %63

48:                                               ; preds = %43
  %49 = load i64, ptr %13, align 8
  %50 = load i64, ptr %11, align 8
  %51 = icmp eq i64 %49, %50
  br i1 %51, label %52, label %59

52:                                               ; preds = %48
  %53 = load i64, ptr %11, align 8
  %54 = load i64, ptr %6, align 8
  %55 = add i64 %54, %53
  store i64 %55, ptr %6, align 8
  %56 = load i64, ptr %11, align 8
  %57 = load i64, ptr %7, align 8
  %58 = sub i64 %57, %56
  store i64 %58, ptr %7, align 8
  br label %60

59:                                               ; preds = %48
  store i1 false, ptr %4, align 1
  br label %63

60:                                               ; preds = %52
  br label %61

61:                                               ; preds = %60
  br label %15, !llvm.loop !10

62:                                               ; preds = %15
  store i1 true, ptr %4, align 1
  br label %63

63:                                               ; preds = %62, %59, %47
  %64 = load i1, ptr %4, align 1
  ret i1 %64
}