; Function Attrs: mustprogress nofree norecurse nosync nounwind willreturn memory(read, inaccessiblemem: none) uwtable
define hidden noundef zeroext i1 @_ZNK22ShenandoahSimpleBitMap27is_forward_consecutive_onesEll(ptr nocapture noundef nonnull readonly align 8 dereferenceable(24) %0, i64 noundef %1, i64 noundef %2) local_unnamed_addr #2 align 2 {
  %4 = icmp sgt i64 %2, 0
  br i1 %4, label %.lr.ph, label %._crit_edge

.lr.ph:                                           ; preds = %3
  %5 = getelementptr inbounds i8, ptr %0, i64 16
  %6 = load ptr, ptr %5, align 8
  br label %7

7:                                                ; preds = %.lr.ph, %18
  %.02127 = phi i64 [ %1, %.lr.ph ], [ %19, %18 ]
  %.02226 = phi i64 [ %2, %.lr.ph ], [ %20, %18 ]
  %8 = ashr i64 %.02127, 6
  %9 = and i64 %.02127, 63
  %10 = getelementptr inbounds i64, ptr %6, i64 %8
  %11 = load i64, ptr %10, align 8
  %12 = sub nuw nsw i64 64, %9
  %13 = lshr i64 %11, %9
  %.not = icmp eq i64 %13, -1
  %14 = xor i64 %13, -1
  %15 = tail call range(i64 0, 65) i64 @llvm.cttz.i64(i64 %14, i1 true)
  %.0 = select i1 %.not, i64 %12, i64 %15
  %.not25 = icmp ult i64 %.0, %.02226
  br i1 %.not25, label %16, label %._crit_edge

16:                                               ; preds = %7
  %17 = icmp eq i64 %.0, %12
  br i1 %17, label %18, label %._crit_edge

18:                                               ; preds = %16
  %19 = add i64 %12, %.02127
  %20 = sub nsw i64 %.02226, %12
  %21 = icmp sgt i64 %20, 0
  br i1 %21, label %7, label %._crit_edge, !llvm.loop !10

._crit_edge:                                      ; preds = %7, %16, %18, %3
  %.020 = phi i1 [ true, %3 ], [ true, %18 ], [ false, %16 ], [ true, %7 ]
  ret i1 %.020
}